target datalayout = "e-m:e-p270:32:32-p271:32:32-p272:64:64-i64:64-i128:128-f80:128-n8:16:32:64-S128"
target triple = "x86_64-pc-linux-gnu"

%"class.llvm::SmallVectorBase" = type { ptr, i32, i32 }
%"struct.clang::format::WhitespaceManager::CellDescriptions" = type <{ %"class.llvm::SmallVector.145", %"class.llvm::SmallVector.150", i32, [4 x i8] }>
%"class.llvm::SmallVector.145" = type { %"class.llvm::SmallVectorImpl.146", %"struct.llvm::SmallVectorStorage.149" }
%"class.llvm::SmallVectorImpl.146" = type { %"class.llvm::SmallVectorTemplateBase.147" }
%"class.llvm::SmallVectorTemplateBase.147" = type { %"class.llvm::SmallVectorTemplateCommon.148" }
%"class.llvm::SmallVectorTemplateCommon.148" = type { %"class.llvm::SmallVectorBase" }
%"struct.llvm::SmallVectorStorage.149" = type { [48 x i8] }
%"class.llvm::SmallVector.150" = type { %"class.llvm::SmallVectorImpl.151", %"struct.llvm::SmallVectorStorage.154" }
%"class.llvm::SmallVectorImpl.151" = type { %"class.llvm::SmallVectorTemplateBase.152" }
%"class.llvm::SmallVectorTemplateBase.152" = type { %"class.llvm::SmallVectorTemplateCommon.153" }
%"class.llvm::SmallVectorTemplateCommon.153" = type { %"class.llvm::SmallVectorBase" }
%"struct.llvm::SmallVectorStorage.154" = type { [48 x i8] }
%"struct.clang::format::WhitespaceManager::CellDescription" = type { i32, i32, i32, i8, ptr }

; Function Attrs: mustprogress nounwind uwtable
define linkonce_odr hidden noundef ptr @_ZNK4llvm25SmallVectorTemplateCommonIjvE10getFirstElEv(ptr noundef nonnull align 8 dereferenceable(16) %0) #0 comdat align 2 {
  %2 = alloca ptr, align 8
  store ptr %0, ptr %2, align 8
  %3 = load ptr, ptr %2, align 8
  %4 = getelementptr inbounds i8, ptr %3, i64 16
  ret ptr %4
}

; Function Attrs: mustprogress nounwind uwtable
define linkonce_odr hidden noundef ptr @_ZNK4llvm25SmallVectorTemplateCommonIN5clang6format17WhitespaceManager15CellDescriptionEvE10getFirstElEv(ptr noundef nonnull align 8 dereferenceable(16) %0) #0 comdat align 2 {
  %2 = alloca ptr, align 8
  store ptr %0, ptr %2, align 8
  %3 = load ptr, ptr %2, align 8
  %4 = getelementptr inbounds i8, ptr %3, i64 16
  ret ptr %4
}

; Function Attrs: mustprogress nounwind uwtable
define linkonce_odr hidden void @_ZN4llvm25SmallVectorTemplateCommonIjvEC2Em(ptr noundef nonnull align 8 dereferenceable(16) %0, i64 noundef %1) unnamed_addr #0 comdat align 2 {
  %3 = alloca ptr, align 8
  %4 = alloca i64, align 8
  store ptr %0, ptr %3, align 8
  store i64 %1, ptr %4, align 8
  %5 = load ptr, ptr %3, align 8
  %6 = call noundef ptr @_ZNK4llvm25SmallVectorTemplateCommonIjvE10getFirstElEv(ptr noundef nonnull align 8 dereferenceable(16) %5)
  %7 = load i64, ptr %4, align 8
  call void @_ZN4llvm15SmallVectorBaseIjEC2EPvm(ptr noundef nonnull align 8 dereferenceable(16) %5, ptr noundef %6, i64 noundef %7)
  ret void
}

; Function Attrs: mustprogress nounwind uwtable
define linkonce_odr hidden void @_ZN4llvm25SmallVectorTemplateCommonIN5clang6format17WhitespaceManager15CellDescriptionEvEC2Em(ptr noundef nonnull align 8 dereferenceable(16) %0, i64 noundef %1) unnamed_addr #0 comdat align 2 {
  %3 = alloca ptr, align 8
  %4 = alloca i64, align 8
  store ptr %0, ptr %3, align 8
  store i64 %1, ptr %4, align 8
  %5 = load ptr, ptr %3, align 8
  %6 = call noundef ptr @_ZNK4llvm25SmallVectorTemplateCommonIN5clang6format17WhitespaceManager15CellDescriptionEvE10getFirstElEv(ptr noundef nonnull align 8 dereferenceable(16) %5)
  %7 = load i64, ptr %4, align 8
  call void @_ZN4llvm15SmallVectorBaseIjEC2EPvm(ptr noundef nonnull align 8 dereferenceable(16) %5, ptr noundef %6, i64 noundef %7)
  ret void
}

; Function Attrs: mustprogress nounwind uwtable
define linkonce_odr hidden void @_ZN4llvm23SmallVectorTemplateBaseIjLb1EEC2Em(ptr noundef nonnull align 8 dereferenceable(16) %0, i64 noundef %1) unnamed_addr #0 comdat align 2 {
  %3 = alloca ptr, align 8
  %4 = alloca i64, align 8
  store ptr %0, ptr %3, align 8
  store i64 %1, ptr %4, align 8
  %5 = load ptr, ptr %3, align 8
  %6 = load i64, ptr %4, align 8
  call void @_ZN4llvm25SmallVectorTemplateCommonIjvEC2Em(ptr noundef nonnull align 8 dereferenceable(16) %5, i64 noundef %6)
  ret void
}

; Function Attrs: mustprogress nounwind uwtable
define linkonce_odr hidden void @_ZN4llvm23SmallVectorTemplateBaseIN5clang6format17WhitespaceManager15CellDescriptionELb1EEC2Em(ptr noundef nonnull align 8 dereferenceable(16) %0, i64 noundef %1) unnamed_addr #0 comdat align 2 {
  %3 = alloca ptr, align 8
  %4 = alloca i64, align 8
  store ptr %0, ptr %3, align 8
  store i64 %1, ptr %4, align 8
  %5 = load ptr, ptr %3, align 8
  %6 = load i64, ptr %4, align 8
  call void @_ZN4llvm25SmallVectorTemplateCommonIN5clang6format17WhitespaceManager15CellDescriptionEvEC2Em(ptr noundef nonnull align 8 dereferenceable(16) %5, i64 noundef %6)
  ret void
}

; Function Attrs: mustprogress nounwind uwtable
define linkonce_odr hidden void @_ZN4llvm15SmallVectorImplIjEC2Ej(ptr noundef nonnull align 8 dereferenceable(16) %0, i32 noundef %1) unnamed_addr #0 comdat align 2 {
  %3 = alloca ptr, align 8
  %4 = alloca i32, align 4
  store ptr %0, ptr %3, align 8
  store i32 %1, ptr %4, align 4
  %5 = load ptr, ptr %3, align 8
  %6 = load i32, ptr %4, align 4
  %7 = zext i32 %6 to i64
  call void @_ZN4llvm23SmallVectorTemplateBaseIjLb1EEC2Em(ptr noundef nonnull align 8 dereferenceable(16) %5, i64 noundef %7)
  ret void
}

; Function Attrs: mustprogress nounwind uwtable
define linkonce_odr hidden void @_ZN4llvm15SmallVectorImplIN5clang6format17WhitespaceManager15CellDescriptionEEC2Ej(ptr noundef nonnull align 8 dereferenceable(16) %0, i32 noundef %1) unnamed_addr #0 comdat align 2 {
  %3 = alloca ptr, align 8
  %4 = alloca i32, align 4
  store ptr %0, ptr %3, align 8
  store i32 %1, ptr %4, align 4
  %5 = load ptr, ptr %3, align 8
  %6 = load i32, ptr %4, align 4
  %7 = zext i32 %6 to i64
  call void @_ZN4llvm23SmallVectorTemplateBaseIN5clang6format17WhitespaceManager15CellDescriptionELb1EEC2Em(ptr noundef nonnull align 8 dereferenceable(16) %5, i64 noundef %7)
  ret void
}

; Function Attrs: mustprogress nounwind uwtable
define linkonce_odr hidden void @_ZN4llvm11SmallVectorIjLj12EEC2EOS1_(ptr noundef nonnull align 8 dereferenceable(64) %0, ptr noundef nonnull align 8 dereferenceable(64) %1) unnamed_addr #0 comdat align 2 {
  %3 = alloca ptr, align 8
  %4 = alloca ptr, align 8
  store ptr %0, ptr %3, align 8
  store ptr %1, ptr %4, align 8
  %5 = load ptr, ptr %3, align 8
  call void @_ZN4llvm15SmallVectorImplIjEC2Ej(ptr noundef nonnull align 8 dereferenceable(16) %5, i32 noundef 12)
  %6 = load ptr, ptr %4, align 8
  %7 = call noundef zeroext i1 @_ZNK4llvm15SmallVectorBaseIjE5emptyEv(ptr noundef nonnull align 8 dereferenceable(16) %6)
  br i1 %7, label %11, label %8

8:                                                ; preds = %2
  %9 = load ptr, ptr %4, align 8
  %10 = call noundef nonnull align 8 dereferenceable(16) ptr @_ZN4llvm15SmallVectorImplIjEaSEOS1_(ptr noundef nonnull align 8 dereferenceable(16) %5, ptr noundef nonnull align 8 dereferenceable(16) %9)
  br label %11

11:                                               ; preds = %8, %2
  ret void
}

; Function Attrs: mustprogress nounwind uwtable
define linkonce_odr hidden void @_ZN4llvm11SmallVectorIN5clang6format17WhitespaceManager15CellDescriptionELj2EEC2EOS5_(ptr noundef nonnull align 8 dereferenceable(64) %0, ptr noundef nonnull align 8 dereferenceable(64) %1) unnamed_addr #0 comdat align 2 {
  %3 = alloca ptr, align 8
  %4 = alloca ptr, align 8
  store ptr %0, ptr %3, align 8
  store ptr %1, ptr %4, align 8
  %5 = load ptr, ptr %3, align 8
  call void @_ZN4llvm15SmallVectorImplIN5clang6format17WhitespaceManager15CellDescriptionEEC2Ej(ptr noundef nonnull align 8 dereferenceable(16) %5, i32 noundef 2)
  %6 = load ptr, ptr %4, align 8
  %7 = call noundef zeroext i1 @_ZNK4llvm15SmallVectorBaseIjE5emptyEv(ptr noundef nonnull align 8 dereferenceable(16) %6)
  br i1 %7, label %11, label %8

8:                                                ; preds = %2
  %9 = load ptr, ptr %4, align 8
  %10 = call noundef nonnull align 8 dereferenceable(16) ptr @_ZN4llvm15SmallVectorImplIN5clang6format17WhitespaceManager15CellDescriptionEEaSEOS5_(ptr noundef nonnull align 8 dereferenceable(16) %5, ptr noundef nonnull align 8 dereferenceable(16) %9)
  br label %11

11:                                               ; preds = %8, %2
  ret void
}

; Function Attrs: mustprogress nounwind uwtable
define linkonce_odr hidden void @_ZN5clang6format17WhitespaceManager16CellDescriptionsC2EOS2_(ptr noundef nonnull align 8 dereferenceable(132) %0, ptr noundef nonnull align 8 dereferenceable(132) %1) unnamed_addr #0 comdat align 2 {
  %3 = alloca ptr, align 8
  %4 = alloca ptr, align 8
  store ptr %0, ptr %3, align 8
  store ptr %1, ptr %4, align 8
  %5 = load ptr, ptr %3, align 8
  %6 = getelementptr inbounds nuw %"struct.clang::format::WhitespaceManager::CellDescriptions", ptr %5, i32 0, i32 0
  %7 = load ptr, ptr %4, align 8
  %8 = getelementptr inbounds nuw %"struct.clang::format::WhitespaceManager::CellDescriptions", ptr %7, i32 0, i32 0
  call void @_ZN4llvm11SmallVectorIN5clang6format17WhitespaceManager15CellDescriptionELj2EEC2EOS5_(ptr noundef nonnull align 8 dereferenceable(64) %6, ptr noundef nonnull align 8 dereferenceable(64) %8)
  %9 = getelementptr inbounds nuw %"struct.clang::format::WhitespaceManager::CellDescriptions", ptr %5, i32 0, i32 1
  %10 = load ptr, ptr %4, align 8
  %11 = getelementptr inbounds nuw %"struct.clang::format::WhitespaceManager::CellDescriptions", ptr %10, i32 0, i32 1
  call void @_ZN4llvm11SmallVectorIjLj12EEC2EOS1_(ptr noundef nonnull align 8 dereferenceable(64) %9, ptr noundef nonnull align 8 dereferenceable(64) %11)
  %12 = getelementptr inbounds nuw %"struct.clang::format::WhitespaceManager::CellDescriptions", ptr %5, i32 0, i32 2
  %13 = load ptr, ptr %4, align 8
  %14 = getelementptr inbounds nuw %"struct.clang::format::WhitespaceManager::CellDescriptions", ptr %13, i32 0, i32 2
  %15 = load i32, ptr %14, align 8
  store i32 %15, ptr %12, align 8
  ret void
}

; Function Attrs: mustprogress nounwind uwtable
define linkonce_odr hidden noundef ptr @_ZN4llvm25SmallVectorTemplateCommonIN5clang6format17WhitespaceManager15CellDescriptionEvE3endEv(ptr noundef nonnull align 8 dereferenceable(16) %0) #0 comdat align 2 {
  %2 = alloca ptr, align 8
  store ptr %0, ptr %2, align 8
  %3 = load ptr, ptr %2, align 8
  %4 = call noundef ptr @_ZN4llvm25SmallVectorTemplateCommonIN5clang6format17WhitespaceManager15CellDescriptionEvE5beginEv(ptr noundef nonnull align 8 dereferenceable(16) %3)
  %5 = call noundef i64 @_ZNK4llvm15SmallVectorBaseIjE4sizeEv(ptr noundef nonnull align 8 dereferenceable(16) %3)
  %6 = getelementptr inbounds %"struct.clang::format::WhitespaceManager::CellDescription", ptr %4, i64 %5
  ret ptr %6
}

; Function Attrs: mustprogress nounwind uwtable
define linkonce_odr hidden noundef ptr @_ZN4llvm25SmallVectorTemplateCommonIN5clang6format17WhitespaceManager15CellDescriptionEvE5beginEv(ptr noundef nonnull align 8 dereferenceable(16) %0) #0 comdat align 2 {
  %2 = alloca ptr, align 8
  store ptr %0, ptr %2, align 8
  %3 = load ptr, ptr %2, align 8
  %4 = getelementptr inbounds nuw %"class.llvm::SmallVectorBase", ptr %3, i32 0, i32 0
  %5 = load ptr, ptr %4, align 8
  ret ptr %5
}

; Function Attrs: mustprogress nounwind uwtable
define dso_local void @_ZN5clang6format17WhitespaceManager9linkCellsEONS1_16CellDescriptionsE(ptr dead_on_unwind noalias writable sret(%"struct.clang::format::WhitespaceManager::CellDescriptions") align 8 %0, ptr noundef nonnull align 8 dereferenceable(132) %1) #0 align 2 {
  %3 = alloca ptr, align 8
  %4 = alloca ptr, align 8
  %5 = alloca ptr, align 8
  %6 = alloca ptr, align 8
  %7 = alloca ptr, align 8
  store ptr %0, ptr %3, align 8
  store ptr %1, ptr %4, align 8
  %8 = load ptr, ptr %4, align 8
  %9 = getelementptr inbounds nuw %"struct.clang::format::WhitespaceManager::CellDescriptions", ptr %8, i32 0, i32 0
  store ptr %9, ptr %5, align 8
  %10 = load ptr, ptr %5, align 8
  %11 = call noundef ptr @_ZN4llvm25SmallVectorTemplateCommonIN5clang6format17WhitespaceManager15CellDescriptionEvE5beginEv(ptr noundef nonnull align 8 dereferenceable(16) %10)
  store ptr %11, ptr %6, align 8
  br label %12

12:                                               ; preds = %54, %2
  %13 = load ptr, ptr %6, align 8
  %14 = load ptr, ptr %5, align 8
  %15 = call noundef ptr @_ZN4llvm25SmallVectorTemplateCommonIN5clang6format17WhitespaceManager15CellDescriptionEvE3endEv(ptr noundef nonnull align 8 dereferenceable(16) %14)
  %16 = icmp ne ptr %13, %15
  br i1 %16, label %17, label %57

17:                                               ; preds = %12
  %18 = load ptr, ptr %6, align 8
  %19 = getelementptr inbounds nuw %"struct.clang::format::WhitespaceManager::CellDescription", ptr %18, i32 0, i32 4
  %20 = load ptr, ptr %19, align 8
  %21 = icmp ne ptr %20, null
  br i1 %21, label %53, label %22

22:                                               ; preds = %17
  %23 = load ptr, ptr %6, align 8
  %24 = getelementptr inbounds %"struct.clang::format::WhitespaceManager::CellDescription", ptr %23, i64 1
  %25 = load ptr, ptr %5, align 8
  %26 = call noundef ptr @_ZN4llvm25SmallVectorTemplateCommonIN5clang6format17WhitespaceManager15CellDescriptionEvE3endEv(ptr noundef nonnull align 8 dereferenceable(16) %25)
  %27 = icmp ne ptr %24, %26
  br i1 %27, label %28, label %53

28:                                               ; preds = %22
  %29 = load ptr, ptr %6, align 8
  %30 = getelementptr inbounds %"struct.clang::format::WhitespaceManager::CellDescription", ptr %29, i64 1
  store ptr %30, ptr %7, align 8
  br label %31

31:                                               ; preds = %49, %28
  %32 = load ptr, ptr %7, align 8
  %33 = load ptr, ptr %5, align 8
  %34 = call noundef ptr @_ZN4llvm25SmallVectorTemplateCommonIN5clang6format17WhitespaceManager15CellDescriptionEvE3endEv(ptr noundef nonnull align 8 dereferenceable(16) %33)
  %35 = icmp ne ptr %32, %34
  br i1 %35, label %36, label %52

36:                                               ; preds = %31
  %37 = load ptr, ptr %7, align 8
  %38 = getelementptr inbounds nuw %"struct.clang::format::WhitespaceManager::CellDescription", ptr %37, i32 0, i32 1
  %39 = load i32, ptr %38, align 4
  %40 = load ptr, ptr %6, align 8
  %41 = getelementptr inbounds nuw %"struct.clang::format::WhitespaceManager::CellDescription", ptr %40, i32 0, i32 1
  %42 = load i32, ptr %41, align 4
  %43 = icmp eq i32 %39, %42
  br i1 %43, label %44, label %48

44:                                               ; preds = %36
  %45 = load ptr, ptr %7, align 8
  %46 = load ptr, ptr %6, align 8
  %47 = getelementptr inbounds nuw %"struct.clang::format::WhitespaceManager::CellDescription", ptr %46, i32 0, i32 4
  store ptr %45, ptr %47, align 8
  br label %52

48:                                               ; preds = %36
  br label %49

49:                                               ; preds = %48
  %50 = load ptr, ptr %7, align 8
  %51 = getelementptr inbounds %"struct.clang::format::WhitespaceManager::CellDescription", ptr %50, i32 1
  store ptr %51, ptr %7, align 8
  br label %31, !llvm.loop !51

52:                                               ; preds = %44, %31
  br label %53

53:                                               ; preds = %52, %22, %17
  br label %54

54:                                               ; preds = %53
  %55 = load ptr, ptr %6, align 8
  %56 = getelementptr inbounds %"struct.clang::format::WhitespaceManager::CellDescription", ptr %55, i32 1
  store ptr %56, ptr %6, align 8
  br label %12, !llvm.loop !52

57:                                               ; preds = %12
  %58 = load ptr, ptr %4, align 8
  call void @_ZN5clang6format17WhitespaceManager16CellDescriptionsC2EOS2_(ptr noundef nonnull align 8 dereferenceable(132) %0, ptr noundef nonnull align 8 dereferenceable(132) %58)
  ret void
}