; Function Attrs: mustprogress nounwind uwtable
define dso_local void @_ZN5clang6format17WhitespaceManager9linkCellsEONS1_16CellDescriptionsE(ptr dead_on_unwind noalias writable sret(%"struct.clang::format::WhitespaceManager::CellDescriptions") align 8 %0, ptr noundef nonnull align 8 dereferenceable(132) %1) local_unnamed_addr #0 align 2 {
  %3 = load ptr, ptr %1, align 8
  %4 = tail call noundef i64 @_ZNK4llvm15SmallVectorBaseIjE4sizeEv(ptr noundef nonnull align 8 dereferenceable(16) %1) #18
  %.not25 = icmp eq i64 %4, 0
  br i1 %.not25, label %._crit_edge, label %.lr.ph27

.lr.ph27:                                         ; preds = %2, %.loopexit
  %.01726 = phi ptr [ %27, %.loopexit ], [ %3, %2 ]
  %5 = getelementptr inbounds nuw i8, ptr %.01726, i64 16
  %6 = load ptr, ptr %5, align 8
  %.not19 = icmp eq ptr %6, null
  br i1 %.not19, label %7, label %.loopexit

7:                                                ; preds = %.lr.ph27
  %8 = getelementptr inbounds i8, ptr %.01726, i64 24
  %9 = load ptr, ptr %1, align 8
  %10 = tail call noundef i64 @_ZNK4llvm15SmallVectorBaseIjE4sizeEv(ptr noundef nonnull align 8 dereferenceable(16) %1) #18
  %11 = getelementptr inbounds %"struct.clang::format::WhitespaceManager::CellDescription", ptr %9, i64 %10
  %.not20 = icmp eq ptr %8, %11
  br i1 %.not20, label %.loopexit, label %.preheader

.preheader:                                       ; preds = %7
  %12 = load ptr, ptr %1, align 8
  %13 = tail call noundef i64 @_ZNK4llvm15SmallVectorBaseIjE4sizeEv(ptr noundef nonnull align 8 dereferenceable(16) %1) #18
  %14 = getelementptr inbounds %"struct.clang::format::WhitespaceManager::CellDescription", ptr %12, i64 %13
  %.not2123 = icmp eq ptr %8, %14
  br i1 %.not2123, label %.loopexit, label %.lr.ph

.lr.ph:                                           ; preds = %.preheader
  %15 = getelementptr inbounds nuw i8, ptr %.01726, i64 4
  br label %16

16:                                               ; preds = %.lr.ph, %22
  %.024 = phi ptr [ %8, %.lr.ph ], [ %23, %22 ]
  %17 = getelementptr inbounds nuw i8, ptr %.024, i64 4
  %18 = load i32, ptr %17, align 4
  %19 = load i32, ptr %15, align 4
  %20 = icmp eq i32 %18, %19
  br i1 %20, label %21, label %22

21:                                               ; preds = %16
  store ptr %.024, ptr %5, align 8
  br label %.loopexit

22:                                               ; preds = %16
  %23 = getelementptr inbounds i8, ptr %.024, i64 24
  %24 = load ptr, ptr %1, align 8
  %25 = tail call noundef i64 @_ZNK4llvm15SmallVectorBaseIjE4sizeEv(ptr noundef nonnull align 8 dereferenceable(16) %1) #18
  %26 = getelementptr inbounds %"struct.clang::format::WhitespaceManager::CellDescription", ptr %24, i64 %25
  %.not21 = icmp eq ptr %23, %26
  br i1 %.not21, label %.loopexit, label %16, !llvm.loop !137

.loopexit:                                        ; preds = %22, %.preheader, %.lr.ph27, %7, %21
  %27 = getelementptr inbounds i8, ptr %.01726, i64 24
  %28 = load ptr, ptr %1, align 8
  %29 = tail call noundef i64 @_ZNK4llvm15SmallVectorBaseIjE4sizeEv(ptr noundef nonnull align 8 dereferenceable(16) %1) #18
  %30 = getelementptr inbounds %"struct.clang::format::WhitespaceManager::CellDescription", ptr %28, i64 %29
  %.not = icmp eq ptr %27, %30
  br i1 %.not, label %._crit_edge, label %.lr.ph27, !llvm.loop !138

._crit_edge:                                      ; preds = %.loopexit, %2
  %31 = getelementptr inbounds i8, ptr %0, i64 16
  tail call void @_ZN4llvm15SmallVectorBaseIjEC2EPvm(ptr noundef nonnull align 8 dereferenceable(16) %0, ptr noundef nonnull %31, i64 noundef 2) #18
  %32 = tail call noundef zeroext i1 @_ZNK4llvm15SmallVectorBaseIjE5emptyEv(ptr noundef nonnull align 8 dereferenceable(16) %1) #18
  br i1 %32, label %_ZN4llvm11SmallVectorIN5clang6format17WhitespaceManager15CellDescriptionELj2EEC2EOS5_.exit.i, label %33

33:                                               ; preds = %._crit_edge
  %34 = tail call noundef nonnull align 8 dereferenceable(16) ptr @_ZN4llvm15SmallVectorImplIN5clang6format17WhitespaceManager15CellDescriptionEEaSEOS5_(ptr noundef nonnull align 8 dereferenceable(16) %0, ptr noundef nonnull align 8 dereferenceable(16) %1)
  br label %_ZN4llvm11SmallVectorIN5clang6format17WhitespaceManager15CellDescriptionELj2EEC2EOS5_.exit.i

_ZN4llvm11SmallVectorIN5clang6format17WhitespaceManager15CellDescriptionELj2EEC2EOS5_.exit.i: ; preds = %33, %._crit_edge
  %35 = getelementptr inbounds nuw i8, ptr %0, i64 64
  %36 = getelementptr inbounds nuw i8, ptr %1, i64 64
  %37 = getelementptr inbounds i8, ptr %0, i64 80
  tail call void @_ZN4llvm15SmallVectorBaseIjEC2EPvm(ptr noundef nonnull align 8 dereferenceable(16) %35, ptr noundef nonnull %37, i64 noundef 12) #18
  %38 = tail call noundef zeroext i1 @_ZNK4llvm15SmallVectorBaseIjE5emptyEv(ptr noundef nonnull align 8 dereferenceable(16) %36) #18
  br i1 %38, label %_ZN5clang6format17WhitespaceManager16CellDescriptionsC2EOS2_.exit, label %39

39:                                               ; preds = %_ZN4llvm11SmallVectorIN5clang6format17WhitespaceManager15CellDescriptionELj2EEC2EOS5_.exit.i
  %40 = tail call noundef nonnull align 8 dereferenceable(16) ptr @_ZN4llvm15SmallVectorImplIjEaSEOS1_(ptr noundef nonnull align 8 dereferenceable(16) %35, ptr noundef nonnull align 8 dereferenceable(16) %36)
  br label %_ZN5clang6format17WhitespaceManager16CellDescriptionsC2EOS2_.exit

_ZN5clang6format17WhitespaceManager16CellDescriptionsC2EOS2_.exit: ; preds = %_ZN4llvm11SmallVectorIN5clang6format17WhitespaceManager15CellDescriptionELj2EEC2EOS5_.exit.i, %39
  %41 = getelementptr inbounds nuw i8, ptr %0, i64 128
  %42 = getelementptr inbounds nuw i8, ptr %1, i64 128
  %43 = load i32, ptr %42, align 8
  store i32 %43, ptr %41, align 8
  ret void
}